target datalayout = "e-m:e-p270:32:32-p271:32:32-p272:64:64-i64:64-i128:128-f80:128-n8:16:32:64-S128"
target triple = "x86_64-pc-linux-gnu"

%class.G1CardSetCoarsenStats = type { [7 x i64], [7 x i64] }

@.str.8 = private unnamed_addr constant [131 x i8] c"Inline->AoC %zu (%zu) AoC->Howl %zu (%zu) Howl->Full %zu (%zu) Inline->AoC %zu (%zu) AoC->BitMap %zu (%zu) BitMap->Full %zu (%zu) \00", align 1
@_ZN9G1CardSet14_coarsen_statsE = hidden global %class.G1CardSetCoarsenStats zeroinitializer, align 8
@_ZN9G1CardSet19_last_coarsen_statsE = hidden global %class.G1CardSetCoarsenStats zeroinitializer, align 8
@.str.22 = private unnamed_addr constant [22 x i8] c"Coarsening (recent): \00", align 1
@.str.23 = private unnamed_addr constant [19 x i8] c"Coarsening (all): \00", align 1

; Function Attrs: mustprogress nounwind uwtable
define hidden void @_ZN21G1CardSetCoarsenStats3setERS_(ptr noundef nonnull align 8 dereferenceable(112) %0, ptr noundef nonnull align 8 dereferenceable(112) %1) #1 align 2 {
  %3 = alloca ptr, align 8
  %4 = alloca ptr, align 8
  %5 = alloca i32, align 4
  store ptr %0, ptr %3, align 8
  store ptr %1, ptr %4, align 8
  %6 = load ptr, ptr %3, align 8
  store i32 0, ptr %5, align 4
  br label %7

7:                                                ; preds = %32, %2
  %8 = load i32, ptr %5, align 4
  %9 = zext i32 %8 to i64
  %10 = icmp ult i64 %9, 7
  br i1 %10, label %11, label %35

11:                                               ; preds = %7
  %12 = load ptr, ptr %4, align 8
  %13 = getelementptr inbounds %class.G1CardSetCoarsenStats, ptr %12, i32 0, i32 0
  %14 = load i32, ptr %5, align 4
  %15 = zext i32 %14 to i64
  %16 = getelementptr inbounds [7 x i64], ptr %13, i64 0, i64 %15
  %17 = load i64, ptr %16, align 8
  %18 = getelementptr inbounds %class.G1CardSetCoarsenStats, ptr %6, i32 0, i32 0
  %19 = load i32, ptr %5, align 4
  %20 = zext i32 %19 to i64
  %21 = getelementptr inbounds [7 x i64], ptr %18, i64 0, i64 %20
  store i64 %17, ptr %21, align 8
  %22 = load ptr, ptr %4, align 8
  %23 = getelementptr inbounds %class.G1CardSetCoarsenStats, ptr %22, i32 0, i32 1
  %24 = load i32, ptr %5, align 4
  %25 = zext i32 %24 to i64
  %26 = getelementptr inbounds [7 x i64], ptr %23, i64 0, i64 %25
  %27 = load i64, ptr %26, align 8
  %28 = getelementptr inbounds %class.G1CardSetCoarsenStats, ptr %6, i32 0, i32 1
  %29 = load i32, ptr %5, align 4
  %30 = zext i32 %29 to i64
  %31 = getelementptr inbounds [7 x i64], ptr %28, i64 0, i64 %30
  store i64 %27, ptr %31, align 8
  br label %32

32:                                               ; preds = %11
  %33 = load i32, ptr %5, align 4
  %34 = add i32 %33, 1
  store i32 %34, ptr %5, align 4
  br label %7, !llvm.loop !8

35:                                               ; preds = %7
  ret void
}

; Function Attrs: mustprogress nounwind uwtable
define hidden void @_ZN21G1CardSetCoarsenStats8print_onEP12outputStream(ptr noundef nonnull align 8 dereferenceable(112) %0, ptr noundef %1) #1 align 2 {
  %3 = alloca ptr, align 8
  %4 = alloca ptr, align 8
  store ptr %0, ptr %3, align 8
  store ptr %1, ptr %4, align 8
  %5 = load ptr, ptr %3, align 8
  %6 = load ptr, ptr %4, align 8
  %7 = getelementptr inbounds %class.G1CardSetCoarsenStats, ptr %5, i32 0, i32 0
  %8 = getelementptr inbounds [7 x i64], ptr %7, i64 0, i64 0
  %9 = load i64, ptr %8, align 8
  %10 = getelementptr inbounds %class.G1CardSetCoarsenStats, ptr %5, i32 0, i32 1
  %11 = getelementptr inbounds [7 x i64], ptr %10, i64 0, i64 0
  %12 = load i64, ptr %11, align 8
  %13 = getelementptr inbounds %class.G1CardSetCoarsenStats, ptr %5, i32 0, i32 0
  %14 = getelementptr inbounds [7 x i64], ptr %13, i64 0, i64 1
  %15 = load i64, ptr %14, align 8
  %16 = getelementptr inbounds %class.G1CardSetCoarsenStats, ptr %5, i32 0, i32 1
  %17 = getelementptr inbounds [7 x i64], ptr %16, i64 0, i64 1
  %18 = load i64, ptr %17, align 8
  %19 = getelementptr inbounds %class.G1CardSetCoarsenStats, ptr %5, i32 0, i32 0
  %20 = getelementptr inbounds [7 x i64], ptr %19, i64 0, i64 3
  %21 = load i64, ptr %20, align 8
  %22 = getelementptr inbounds %class.G1CardSetCoarsenStats, ptr %5, i32 0, i32 1
  %23 = getelementptr inbounds [7 x i64], ptr %22, i64 0, i64 3
  %24 = load i64, ptr %23, align 8
  %25 = getelementptr inbounds %class.G1CardSetCoarsenStats, ptr %5, i32 0, i32 0
  %26 = getelementptr inbounds [7 x i64], ptr %25, i64 0, i64 4
  %27 = load i64, ptr %26, align 8
  %28 = getelementptr inbounds %class.G1CardSetCoarsenStats, ptr %5, i32 0, i32 1
  %29 = getelementptr inbounds [7 x i64], ptr %28, i64 0, i64 4
  %30 = load i64, ptr %29, align 8
  %31 = getelementptr inbounds %class.G1CardSetCoarsenStats, ptr %5, i32 0, i32 0
  %32 = getelementptr inbounds [7 x i64], ptr %31, i64 0, i64 5
  %33 = load i64, ptr %32, align 8
  %34 = getelementptr inbounds %class.G1CardSetCoarsenStats, ptr %5, i32 0, i32 1
  %35 = getelementptr inbounds [7 x i64], ptr %34, i64 0, i64 5
  %36 = load i64, ptr %35, align 8
  %37 = getelementptr inbounds %class.G1CardSetCoarsenStats, ptr %5, i32 0, i32 0
  %38 = getelementptr inbounds [7 x i64], ptr %37, i64 0, i64 6
  %39 = load i64, ptr %38, align 8
  %40 = getelementptr inbounds %class.G1CardSetCoarsenStats, ptr %5, i32 0, i32 1
  %41 = getelementptr inbounds [7 x i64], ptr %40, i64 0, i64 6
  %42 = load i64, ptr %41, align 8
  call void (ptr, ptr, ...) @_ZN12outputStream8print_crEPKcz(ptr noundef nonnull align 8 dereferenceable(56) %6, ptr noundef @.str.8, i64 noundef %9, i64 noundef %12, i64 noundef %15, i64 noundef %18, i64 noundef %21, i64 noundef %24, i64 noundef %27, i64 noundef %30, i64 noundef %33, i64 noundef %36, i64 noundef %39, i64 noundef %42)
  ret void
}

; Function Attrs: mustprogress nounwind uwtable
define hidden void @_ZN21G1CardSetCoarsenStats13subtract_fromERS_(ptr noundef nonnull align 8 dereferenceable(112) %0, ptr noundef nonnull align 8 dereferenceable(112) %1) #1 align 2 {
  %3 = alloca ptr, align 8
  %4 = alloca ptr, align 8
  %5 = alloca i32, align 4
  store ptr %0, ptr %3, align 8
  store ptr %1, ptr %4, align 8
  %6 = load ptr, ptr %3, align 8
  store i32 0, ptr %5, align 4
  br label %7

7:                                                ; preds = %44, %2
  %8 = load i32, ptr %5, align 4
  %9 = zext i32 %8 to i64
  %10 = icmp ult i64 %9, 7
  br i1 %10, label %11, label %47

11:                                               ; preds = %7
  %12 = load ptr, ptr %4, align 8
  %13 = getelementptr inbounds %class.G1CardSetCoarsenStats, ptr %12, i32 0, i32 0
  %14 = load i32, ptr %5, align 4
  %15 = zext i32 %14 to i64
  %16 = getelementptr inbounds [7 x i64], ptr %13, i64 0, i64 %15
  %17 = load i64, ptr %16, align 8
  %18 = getelementptr inbounds %class.G1CardSetCoarsenStats, ptr %6, i32 0, i32 0
  %19 = load i32, ptr %5, align 4
  %20 = zext i32 %19 to i64
  %21 = getelementptr inbounds [7 x i64], ptr %18, i64 0, i64 %20
  %22 = load i64, ptr %21, align 8
  %23 = sub i64 %17, %22
  %24 = getelementptr inbounds %class.G1CardSetCoarsenStats, ptr %6, i32 0, i32 0
  %25 = load i32, ptr %5, align 4
  %26 = zext i32 %25 to i64
  %27 = getelementptr inbounds [7 x i64], ptr %24, i64 0, i64 %26
  store i64 %23, ptr %27, align 8
  %28 = load ptr, ptr %4, align 8
  %29 = getelementptr inbounds %class.G1CardSetCoarsenStats, ptr %28, i32 0, i32 1
  %30 = load i32, ptr %5, align 4
  %31 = zext i32 %30 to i64
  %32 = getelementptr inbounds [7 x i64], ptr %29, i64 0, i64 %31
  %33 = load i64, ptr %32, align 8
  %34 = getelementptr inbounds %class.G1CardSetCoarsenStats, ptr %6, i32 0, i32 1
  %35 = load i32, ptr %5, align 4
  %36 = zext i32 %35 to i64
  %37 = getelementptr inbounds [7 x i64], ptr %34, i64 0, i64 %36
  %38 = load i64, ptr %37, align 8
  %39 = sub i64 %33, %38
  %40 = getelementptr inbounds %class.G1CardSetCoarsenStats, ptr %6, i32 0, i32 1
  %41 = load i32, ptr %5, align 4
  %42 = zext i32 %41 to i64
  %43 = getelementptr inbounds [7 x i64], ptr %40, i64 0, i64 %42
  store i64 %39, ptr %43, align 8
  br label %44

44:                                               ; preds = %11
  %45 = load i32, ptr %5, align 4
  %46 = add i32 %45, 1
  store i32 %46, ptr %5, align 4
  br label %7, !llvm.loop !9

47:                                               ; preds = %7
  ret void
}

; Function Attrs: mustprogress nounwind uwtable
define hidden void @_ZN9G1CardSet19print_coarsen_statsEP12outputStream(ptr noundef %0) #1 align 2 {
  %2 = alloca ptr, align 8
  store ptr %0, ptr %2, align 8
  call void @_ZN21G1CardSetCoarsenStats13subtract_fromERS_(ptr noundef nonnull align 8 dereferenceable(112) @_ZN9G1CardSet19_last_coarsen_statsE, ptr noundef nonnull align 8 dereferenceable(112) @_ZN9G1CardSet14_coarsen_statsE)
  %3 = load ptr, ptr %2, align 8
  call void (ptr, ptr, ...) @_ZN12outputStream5printEPKcz(ptr noundef nonnull align 8 dereferenceable(56) %3, ptr noundef @.str.22)
  %4 = load ptr, ptr %2, align 8
  call void @_ZN21G1CardSetCoarsenStats8print_onEP12outputStream(ptr noundef nonnull align 8 dereferenceable(112) @_ZN9G1CardSet19_last_coarsen_statsE, ptr noundef %4)
  %5 = load ptr, ptr %2, align 8
  call void (ptr, ptr, ...) @_ZN12outputStream5printEPKcz(ptr noundef nonnull align 8 dereferenceable(56) %5, ptr noundef @.str.23)
  %6 = load ptr, ptr %2, align 8
  call void @_ZN21G1CardSetCoarsenStats8print_onEP12outputStream(ptr noundef nonnull align 8 dereferenceable(112) @_ZN9G1CardSet14_coarsen_statsE, ptr noundef %6)
  call void @_ZN21G1CardSetCoarsenStats3setERS_(ptr noundef nonnull align 8 dereferenceable(112) @_ZN9G1CardSet19_last_coarsen_statsE, ptr noundef nonnull align 8 dereferenceable(112) @_ZN9G1CardSet14_coarsen_statsE)
  ret void
}