; Function Attrs: mustprogress nounwind uwtable
define hidden void @_ZN9G1CardSet19print_coarsen_statsEP12outputStream(ptr noundef %0) local_unnamed_addr #1 align 2 {
  br label %2

2:                                                ; preds = %2, %1
  %indvars.iv.i = phi i64 [ 0, %1 ], [ %indvars.iv.next.i, %2 ]
  %3 = getelementptr inbounds [7 x i64], ptr @_ZN9G1CardSet14_coarsen_statsE, i64 0, i64 %indvars.iv.i
  %4 = load i64, ptr %3, align 8
  %5 = getelementptr inbounds [7 x i64], ptr @_ZN9G1CardSet19_last_coarsen_statsE, i64 0, i64 %indvars.iv.i
  %6 = load i64, ptr %5, align 8
  %7 = sub i64 %4, %6
  store i64 %7, ptr %5, align 8
  %8 = getelementptr inbounds [7 x i64], ptr getelementptr inbounds (i8, ptr @_ZN9G1CardSet14_coarsen_statsE, i64 56), i64 0, i64 %indvars.iv.i
  %9 = load i64, ptr %8, align 8
  %10 = getelementptr inbounds [7 x i64], ptr getelementptr inbounds (i8, ptr @_ZN9G1CardSet19_last_coarsen_statsE, i64 56), i64 0, i64 %indvars.iv.i
  %11 = load i64, ptr %10, align 8
  %12 = sub i64 %9, %11
  store i64 %12, ptr %10, align 8
  %indvars.iv.next.i = add nuw nsw i64 %indvars.iv.i, 1
  %exitcond.not.i = icmp eq i64 %indvars.iv.next.i, 7
  br i1 %exitcond.not.i, label %_ZN21G1CardSetCoarsenStats13subtract_fromERS_.exit, label %2, !llvm.loop !8

_ZN21G1CardSetCoarsenStats13subtract_fromERS_.exit: ; preds = %2
  tail call void (ptr, ptr, ...) @_ZN12outputStream5printEPKcz(ptr noundef nonnull align 8 dereferenceable(56) %0, ptr noundef nonnull @.str.22) #19
  %13 = load i64, ptr @_ZN9G1CardSet19_last_coarsen_statsE, align 8
  %14 = load i64, ptr getelementptr inbounds (i8, ptr @_ZN9G1CardSet19_last_coarsen_statsE, i64 56), align 8
  %15 = load i64, ptr getelementptr inbounds (i8, ptr @_ZN9G1CardSet19_last_coarsen_statsE, i64 8), align 8
  %16 = load i64, ptr getelementptr inbounds (i8, ptr @_ZN9G1CardSet19_last_coarsen_statsE, i64 64), align 8
  %17 = load i64, ptr getelementptr inbounds (i8, ptr @_ZN9G1CardSet19_last_coarsen_statsE, i64 24), align 8
  %18 = load i64, ptr getelementptr inbounds (i8, ptr @_ZN9G1CardSet19_last_coarsen_statsE, i64 80), align 8
  %19 = load i64, ptr getelementptr inbounds (i8, ptr @_ZN9G1CardSet19_last_coarsen_statsE, i64 32), align 8
  %20 = load i64, ptr getelementptr inbounds (i8, ptr @_ZN9G1CardSet19_last_coarsen_statsE, i64 88), align 8
  %21 = load i64, ptr getelementptr inbounds (i8, ptr @_ZN9G1CardSet19_last_coarsen_statsE, i64 40), align 8
  %22 = load i64, ptr getelementptr inbounds (i8, ptr @_ZN9G1CardSet19_last_coarsen_statsE, i64 96), align 8
  %23 = load i64, ptr getelementptr inbounds (i8, ptr @_ZN9G1CardSet19_last_coarsen_statsE, i64 48), align 8
  %24 = load i64, ptr getelementptr inbounds (i8, ptr @_ZN9G1CardSet19_last_coarsen_statsE, i64 104), align 8
  tail call void (ptr, ptr, ...) @_ZN12outputStream8print_crEPKcz(ptr noundef nonnull align 8 dereferenceable(56) %0, ptr noundef nonnull @.str.8, i64 noundef %13, i64 noundef %14, i64 noundef %15, i64 noundef %16, i64 noundef %17, i64 noundef %18, i64 noundef %19, i64 noundef %20, i64 noundef %21, i64 noundef %22, i64 noundef %23, i64 noundef %24) #19
  tail call void (ptr, ptr, ...) @_ZN12outputStream5printEPKcz(ptr noundef nonnull align 8 dereferenceable(56) %0, ptr noundef nonnull @.str.23) #19
  %25 = load i64, ptr @_ZN9G1CardSet14_coarsen_statsE, align 8
  %26 = load i64, ptr getelementptr inbounds (i8, ptr @_ZN9G1CardSet14_coarsen_statsE, i64 56), align 8
  %27 = load i64, ptr getelementptr inbounds (i8, ptr @_ZN9G1CardSet14_coarsen_statsE, i64 8), align 8
  %28 = load i64, ptr getelementptr inbounds (i8, ptr @_ZN9G1CardSet14_coarsen_statsE, i64 64), align 8
  %29 = load i64, ptr getelementptr inbounds (i8, ptr @_ZN9G1CardSet14_coarsen_statsE, i64 24), align 8
  %30 = load i64, ptr getelementptr inbounds (i8, ptr @_ZN9G1CardSet14_coarsen_statsE, i64 80), align 8
  %31 = load i64, ptr getelementptr inbounds (i8, ptr @_ZN9G1CardSet14_coarsen_statsE, i64 32), align 8
  %32 = load i64, ptr getelementptr inbounds (i8, ptr @_ZN9G1CardSet14_coarsen_statsE, i64 88), align 8
  %33 = load i64, ptr getelementptr inbounds (i8, ptr @_ZN9G1CardSet14_coarsen_statsE, i64 40), align 8
  %34 = load i64, ptr getelementptr inbounds (i8, ptr @_ZN9G1CardSet14_coarsen_statsE, i64 96), align 8
  %35 = load i64, ptr getelementptr inbounds (i8, ptr @_ZN9G1CardSet14_coarsen_statsE, i64 48), align 8
  %36 = load i64, ptr getelementptr inbounds (i8, ptr @_ZN9G1CardSet14_coarsen_statsE, i64 104), align 8
  tail call void (ptr, ptr, ...) @_ZN12outputStream8print_crEPKcz(ptr noundef nonnull align 8 dereferenceable(56) %0, ptr noundef nonnull @.str.8, i64 noundef %25, i64 noundef %26, i64 noundef %27, i64 noundef %28, i64 noundef %29, i64 noundef %30, i64 noundef %31, i64 noundef %32, i64 noundef %33, i64 noundef %34, i64 noundef %35, i64 noundef %36) #19
  tail call void @llvm.memcpy.p0.p0.i64(ptr noundef nonnull align 8 dereferenceable(56) @_ZN9G1CardSet19_last_coarsen_statsE, ptr noundef nonnull align 8 dereferenceable(56) @_ZN9G1CardSet14_coarsen_statsE, i64 56, i1 false)
  tail call void @llvm.memcpy.p0.p0.i64(ptr noundef nonnull align 8 dereferenceable(56) getelementptr inbounds (i8, ptr @_ZN9G1CardSet19_last_coarsen_statsE, i64 56), ptr noundef nonnull align 8 dereferenceable(56) getelementptr inbounds (i8, ptr @_ZN9G1CardSet14_coarsen_statsE, i64 56), i64 56, i1 false)
  ret void
}